target datalayout = "e-m:e-p270:32:32-p271:32:32-p272:64:64-i64:64-i128:128-f80:128-n8:16:32:64-S128"
target triple = "x86_64-pc-linux-gnu"

%"class.ncnn::GRU" = type { %"class.ncnn::Layer", i32, i32, i32, i32, %"class.ncnn::Mat", %"class.ncnn::Mat", %"class.ncnn::Mat", %"class.ncnn::Mat", %"class.ncnn::Mat" }
%"class.ncnn::Layer" = type { ptr, i8, i8, i8, i8, i8, i8, i8, i8, i8, i8, i8, i8, i8, i8, i8, i8, i8, i8, i8, i8, i32, ptr, i32, %"class.std::__cxx11::basic_string", %"class.std::__cxx11::basic_string", %"class.std::vector", %"class.std::vector", %"class.std::vector.3", %"class.std::vector.3" }
%"class.std::__cxx11::basic_string" = type { %"struct.std::__cxx11::basic_string<char>::_Alloc_hider", i64, %union.anon }
%"struct.std::__cxx11::basic_string<char>::_Alloc_hider" = type { ptr }
%union.anon = type { i64, [8 x i8] }
%"class.std::vector" = type { %"struct.std::_Vector_base" }
%"struct.std::_Vector_base" = type { %"struct.std::_Vector_base<int, std::allocator<int>>::_Vector_impl" }
%"struct.std::_Vector_base<int, std::allocator<int>>::_Vector_impl" = type { %"struct.std::_Vector_base<int, std::allocator<int>>::_Vector_impl_data" }
%"struct.std::_Vector_base<int, std::allocator<int>>::_Vector_impl_data" = type { ptr, ptr, ptr }
%"class.std::vector.3" = type { %"struct.std::_Vector_base.4" }
%"struct.std::_Vector_base.4" = type { %"struct.std::_Vector_base<ncnn::Mat, std::allocator<ncnn::Mat>>::_Vector_impl" }
%"struct.std::_Vector_base<ncnn::Mat, std::allocator<ncnn::Mat>>::_Vector_impl" = type { %"struct.std::_Vector_base<ncnn::Mat, std::allocator<ncnn::Mat>>::_Vector_impl_data" }
%"struct.std::_Vector_base<ncnn::Mat, std::allocator<ncnn::Mat>>::_Vector_impl_data" = type { ptr, ptr, ptr }
%"class.ncnn::Mat" = type { ptr, ptr, i64, i32, ptr, i32, i32, i32, i32, i32, i64 }

; Function Attrs: mustprogress uwtable
define hidden noundef i32 @_ZN4ncnn3GRU10load_paramERKNS_9ParamDictE(ptr noundef nonnull align 8 dereferenceable(584) %0, ptr noundef nonnull align 8 dereferenceable(16) %1) unnamed_addr #0 align 2 {
  %3 = alloca ptr, align 8
  %4 = alloca ptr, align 8
  store ptr %0, ptr %3, align 8
  store ptr %1, ptr %4, align 8
  %5 = load ptr, ptr %3, align 8
  %6 = load ptr, ptr %4, align 8
  %7 = call noundef i32 @_ZNK4ncnn9ParamDict3getEii(ptr noundef nonnull align 8 dereferenceable(16) %6, i32 noundef 0, i32 noundef 0)
  %8 = getelementptr inbounds nuw %"class.ncnn::GRU", ptr %5, i32 0, i32 1
  store i32 %7, ptr %8, align 8
  %9 = load ptr, ptr %4, align 8
  %10 = call noundef i32 @_ZNK4ncnn9ParamDict3getEii(ptr noundef nonnull align 8 dereferenceable(16) %9, i32 noundef 1, i32 noundef 0)
  %11 = getelementptr inbounds nuw %"class.ncnn::GRU", ptr %5, i32 0, i32 2
  store i32 %10, ptr %11, align 4
  %12 = load ptr, ptr %4, align 8
  %13 = call noundef i32 @_ZNK4ncnn9ParamDict3getEii(ptr noundef nonnull align 8 dereferenceable(16) %12, i32 noundef 2, i32 noundef 0)
  %14 = getelementptr inbounds nuw %"class.ncnn::GRU", ptr %5, i32 0, i32 3
  store i32 %13, ptr %14, align 8
  %15 = load ptr, ptr %4, align 8
  %16 = call noundef i32 @_ZNK4ncnn9ParamDict3getEii(ptr noundef nonnull align 8 dereferenceable(16) %15, i32 noundef 8, i32 noundef 0)
  %17 = getelementptr inbounds nuw %"class.ncnn::GRU", ptr %5, i32 0, i32 4
  store i32 %16, ptr %17, align 4
  %18 = getelementptr inbounds nuw %"class.ncnn::GRU", ptr %5, i32 0, i32 4
  %19 = load i32, ptr %18, align 4
  %20 = icmp ne i32 %19, 0
  br i1 %20, label %21, label %22

21:                                               ; preds = %2
  br label %22

22:                                               ; preds = %21, %2
  ret i32 0
}